; Function Attrs: null_pointer_is_valid sspstrong uwtable
define hidden i32 @iremotewinspool_dissect_struct_winspool_PrintPropertiesCollection(ptr noundef %0, i32 noundef %1, ptr noundef %2, ptr noundef %3, ptr noundef %4, ptr noundef %5, i32 noundef %6, i32 %7) local_unnamed_addr #0 {
  %9 = getelementptr inbounds nuw i8, ptr %4, i64 64
  %10 = load ptr, ptr %9, align 8
  %11 = getelementptr inbounds nuw i8, ptr %10, i64 96
  %12 = load i32, ptr %11, align 8
  %13 = and i32 %12, 1
  %.not = icmp eq i32 %13, 0
  %14 = getelementptr inbounds nuw i8, ptr %4, i64 25
  %15 = load i8, ptr %14, align 1, !range !6, !noundef !7
  %16 = trunc nuw i8 %15 to i1
  br i1 %.not, label %22, label %17

17:                                               ; preds = %8
  %18 = and i32 %1, 7
  %.not41 = icmp eq i32 %18, 0
  %or.cond = or i1 %.not41, %16
  br i1 %or.cond, label %27, label %19

19:                                               ; preds = %17
  %20 = and i32 %1, -8
  %21 = add i32 %20, 8
  br label %27

22:                                               ; preds = %8
  %23 = and i32 %1, 3
  %.not40 = icmp eq i32 %23, 0
  %or.cond45 = or i1 %.not40, %16
  br i1 %or.cond45, label %27, label %24

24:                                               ; preds = %22
  %25 = and i32 %1, -4
  %26 = add i32 %25, 4
  br label %27

27:                                               ; preds = %22, %24, %17, %19
  %.0 = phi i32 [ %1, %17 ], [ %21, %19 ], [ %1, %22 ], [ %26, %24 ]
  %.not42 = icmp eq ptr %3, null
  br i1 %.not42, label %32, label %28

28:                                               ; preds = %27
  %29 = tail call ptr @proto_tree_add_item(ptr noundef nonnull %3, i32 noundef %6, ptr noundef %0, i32 noundef %.0, i32 noundef -1, i32 noundef 0)
  %30 = load i32, ptr @ett_iremotewinspool_winspool_PrintPropertiesCollection, align 4
  %31 = tail call ptr @proto_item_add_subtree(ptr noundef %29, i32 noundef %30)
  br label %32

32:                                               ; preds = %28, %27
  %.038 = phi ptr [ %29, %28 ], [ null, %27 ]
  %.037 = phi ptr [ %31, %28 ], [ null, %27 ]
  %33 = load i32, ptr @hf_iremotewinspool_winspool_PrintPropertiesCollection_numberOfProperties, align 4
  %34 = tail call i32 @PIDL_dissect_uint32(ptr noundef %0, i32 noundef %.0, ptr noundef %2, ptr noundef %.037, ptr noundef %4, ptr noundef %5, i32 noundef %33, i32 noundef 0)
  %35 = load i32, ptr @hf_iremotewinspool_winspool_PrintPropertiesCollection_propertiesCollection, align 4
  %36 = tail call i32 @dissect_ndr_embedded_pointer(ptr noundef %0, i32 noundef %34, ptr noundef %2, ptr noundef %.037, ptr noundef %4, ptr noundef %5, ptr noundef nonnull @iremotewinspool_dissect_element_winspool_PrintPropertiesCollection_propertiesCollection_, i32 noundef 2, ptr noundef nonnull @.str.516, i32 noundef %35)
  %37 = sub i32 %36, %.0
  tail call void @proto_item_set_len(ptr noundef %.038, i32 noundef %37)
  %38 = load ptr, ptr %9, align 8
  %39 = getelementptr inbounds nuw i8, ptr %38, i64 96
  %40 = load i32, ptr %39, align 8
  %41 = and i32 %40, 1
  %.not43 = icmp eq i32 %41, 0
  br i1 %.not43, label %50, label %42

42:                                               ; preds = %32
  %43 = getelementptr inbounds nuw i8, ptr %4, i64 25
  %44 = load i8, ptr %43, align 1, !range !6, !noundef !7
  %45 = trunc nuw i8 %44 to i1
  %46 = and i32 %36, 7
  %.not44 = icmp eq i32 %46, 0
  %or.cond46 = or i1 %.not44, %45
  br i1 %or.cond46, label %50, label %47

47:                                               ; preds = %42
  %48 = and i32 %36, -8
  %49 = add i32 %48, 8
  br label %50

50:                                               ; preds = %47, %42, %32
  %.1 = phi i32 [ %36, %42 ], [ %49, %47 ], [ %36, %32 ]
  ret i32 %.1
}